; Function Attrs: nounwind uwtable
define hidden range(i32 0, 2) i32 @BN_set_word(ptr noundef captures(none) %0, i64 noundef %1) local_unnamed_addr #0 {
  %3 = icmp eq i64 %1, 0
  br i1 %3, label %4, label %7

4:                                                ; preds = %2
  %5 = getelementptr inbounds nuw i8, ptr %0, i64 16
  store i32 0, ptr %5, align 8, !tbaa !16
  %6 = getelementptr inbounds nuw i8, ptr %0, i64 8
  store i32 0, ptr %6, align 8, !tbaa !15
  br label %bn_wexpand.exit.thread

7:                                                ; preds = %2
  %8 = getelementptr inbounds nuw i8, ptr %0, i64 12
  %9 = load i32, ptr %8, align 4, !tbaa !14
  %.not.i = icmp eq i32 %9, 0
  br i1 %.not.i, label %10, label %.bn_wexpand.exit_crit_edge

.bn_wexpand.exit_crit_edge:                       ; preds = %7
  %.pre = load ptr, ptr %0, align 8, !tbaa !13
  br label %bn_wexpand.exit

10:                                               ; preds = %7
  %11 = getelementptr inbounds nuw i8, ptr %0, i64 20
  %12 = load i32, ptr %11, align 4, !tbaa !6
  %13 = and i32 %12, 2
  %.not18.i = icmp eq i32 %13, 0
  br i1 %.not18.i, label %15, label %14

14:                                               ; preds = %10
  tail call void @ERR_put_error(i32 noundef 3, i32 noundef 0, i32 noundef 106, ptr noundef nonnull @.str, i32 noundef 306) #14
  br label %bn_wexpand.exit.thread

15:                                               ; preds = %10
  %16 = tail call noalias dereferenceable_or_null(8) ptr @malloc(i64 noundef 8) #15
  %17 = icmp eq ptr %16, null
  br i1 %17, label %18, label %19

18:                                               ; preds = %15
  tail call void @ERR_put_error(i32 noundef 3, i32 noundef 0, i32 noundef 65, ptr noundef nonnull @.str, i32 noundef 312) #14
  br label %bn_wexpand.exit.thread

19:                                               ; preds = %15
  %20 = load ptr, ptr %0, align 8, !tbaa !13
  %21 = getelementptr inbounds nuw i8, ptr %0, i64 8
  %22 = load i32, ptr %21, align 8, !tbaa !15
  %23 = sext i32 %22 to i64
  %24 = shl nsw i64 %23, 3
  tail call void @llvm.memcpy.p0.p0.i64(ptr nonnull align 8 %16, ptr align 8 %20, i64 %24, i1 false)
  tail call void @free(ptr noundef %20) #14
  store ptr %16, ptr %0, align 8, !tbaa !13
  store i32 1, ptr %8, align 4, !tbaa !14
  br label %bn_wexpand.exit

bn_wexpand.exit:                                  ; preds = %.bn_wexpand.exit_crit_edge, %19
  %25 = phi ptr [ %.pre, %.bn_wexpand.exit_crit_edge ], [ %16, %19 ]
  %26 = getelementptr inbounds nuw i8, ptr %0, i64 16
  store i32 0, ptr %26, align 8, !tbaa !16
  store i64 %1, ptr %25, align 8, !tbaa !18
  %27 = getelementptr inbounds nuw i8, ptr %0, i64 8
  store i32 1, ptr %27, align 8, !tbaa !15
  br label %bn_wexpand.exit.thread

bn_wexpand.exit.thread:                           ; preds = %18, %14, %bn_wexpand.exit, %4
  %.0 = phi i32 [ 1, %4 ], [ 1, %bn_wexpand.exit ], [ 0, %14 ], [ 0, %18 ]
  ret i32 %.0
}